target datalayout = "e-m:e-p270:32:32-p271:32:32-p272:64:64-i64:64-i128:128-f80:128-n8:16:32:64-S128"
target triple = "x86_64-pc-linux-gnu"

%"class.boost::core::basic_string_view" = type { ptr, i64 }
%"class.boost::urls::url_view_base" = type { [8 x i8], %"struct.boost::urls::detail::url_impl", ptr }
%"struct.boost::urls::detail::url_impl" = type <{ ptr, [8 x i64], [7 x i64], i64, i64, [16 x i8], i16, [2 x i8], i32, i16, i8, [5 x i8] }>
%"struct.boost::urls::detail::params_iter_impl" = type { [8 x i8], %"class.boost::urls::detail::query_ref", i64, i64, i64, i64, i64, i64 }
%"class.boost::urls::detail::query_ref" = type <{ ptr, ptr, i64, i64, i64, i8, [7 x i8] }>
%"struct.boost::urls::detail::query_iter" = type <{ %"struct.boost::urls::detail::any_params_iter.base", [7 x i8], %"class.boost::core::basic_string_view", i64, ptr, i8, [7 x i8] }>
%"struct.boost::urls::detail::any_params_iter.base" = type <{ ptr, %"class.boost::core::basic_string_view", %"class.boost::core::basic_string_view", i8 }>

; Function Attrs: mustprogress uwtable
define noundef nonnull align 8 dereferenceable(216) ptr @_ZN5boost4urls8url_base9set_queryENS_4core17basic_string_viewIcEE(ptr noundef nonnull align 8 dereferenceable(216) %0, ptr %1, i64 %2) #5 align 2 personality ptr @__gxx_personality_v0 {
  %4 = alloca %"class.boost::core::basic_string_view", align 8
  %5 = alloca ptr, align 8
  %6 = alloca %"struct.boost::urls::detail::params_iter_impl", align 8
  %7 = alloca %"class.boost::urls::detail::query_ref", align 8
  %8 = alloca %"struct.boost::urls::detail::params_iter_impl", align 8
  %9 = alloca %"class.boost::urls::detail::query_ref", align 8
  %10 = alloca %"struct.boost::urls::detail::query_iter", align 8
  %11 = alloca %"class.boost::core::basic_string_view", align 8
  %12 = alloca %"struct.boost::urls::detail::params_iter_impl", align 8
  %13 = alloca ptr, align 8
  %14 = alloca i32, align 4
  %15 = getelementptr inbounds nuw { ptr, i64 }, ptr %4, i32 0, i32 0
  store ptr %1, ptr %15, align 8
  %16 = getelementptr inbounds nuw { ptr, i64 }, ptr %4, i32 0, i32 1
  store i64 %2, ptr %16, align 8
  store ptr %0, ptr %5, align 8, !tbaa !7
  %17 = load ptr, ptr %5, align 8
  call void @llvm.lifetime.start.p0(i64 104, ptr %6) #9
  call void @llvm.lifetime.start.p0(i64 48, ptr %7) #9
  %18 = getelementptr inbounds i8, ptr %17, i64 8
  %19 = getelementptr inbounds nuw %"class.boost::urls::url_view_base", ptr %18, i32 0, i32 1
  call void @_ZN5boost4urls6detail9query_refC1ERKNS1_8url_implE(ptr noundef nonnull align 8 dereferenceable(41) %7, ptr noundef nonnull align 8 dereferenceable(171) %19) #9
  call void @_ZN5boost4urls6detail16params_iter_implC1ERKNS1_9query_refE(ptr noundef nonnull align 8 dereferenceable(104) %6, ptr noundef nonnull align 8 dereferenceable(41) %7) #9
  call void @llvm.lifetime.start.p0(i64 104, ptr %8) #9
  call void @llvm.lifetime.start.p0(i64 48, ptr %9) #9
  %20 = getelementptr inbounds i8, ptr %17, i64 8
  %21 = getelementptr inbounds nuw %"class.boost::urls::url_view_base", ptr %20, i32 0, i32 1
  call void @_ZN5boost4urls6detail9query_refC1ERKNS1_8url_implE(ptr noundef nonnull align 8 dereferenceable(41) %9, ptr noundef nonnull align 8 dereferenceable(171) %21) #9
  call void @_ZN5boost4urls6detail16params_iter_implC1ERKNS1_9query_refEi(ptr noundef nonnull align 8 dereferenceable(104) %8, ptr noundef nonnull align 8 dereferenceable(41) %9, i32 noundef 0) #9
  call void @llvm.lifetime.start.p0(i64 88, ptr %10) #9
  call void @llvm.memcpy.p0.p0.i64(ptr align 8 %11, ptr align 8 %4, i64 16, i1 false), !tbaa.struct !37
  %22 = getelementptr inbounds nuw { ptr, i64 }, ptr %11, i32 0, i32 0
  %23 = load ptr, ptr %22, align 8
  %24 = getelementptr inbounds nuw { ptr, i64 }, ptr %11, i32 0, i32 1
  %25 = load i64, ptr %24, align 8
  call void @_ZN5boost4urls6detail10query_iterC1ENS_4core17basic_string_viewIcEEb(ptr noundef nonnull align 8 dereferenceable(81) %10, ptr %23, i64 %25, i1 noundef zeroext true) #9
  call void @llvm.lifetime.start.p0(i64 104, ptr %12) #9
  invoke void @_ZN5boost4urls8url_base11edit_paramsERKNS0_6detail16params_iter_implES5_ONS2_15any_params_iterE(ptr dead_on_unwind writable sret(%"struct.boost::urls::detail::params_iter_impl") align 8 %12, ptr noundef nonnull align 8 dereferenceable(216) %17, ptr noundef nonnull align 8 dereferenceable(104) %6, ptr noundef nonnull align 8 dereferenceable(104) %8, ptr noundef nonnull align 8 dereferenceable(41) %10)
          to label %26 unwind label %27

26:                                               ; preds = %3
  call void @llvm.lifetime.end.p0(i64 104, ptr %12) #9
  call void @_ZN5boost4urls6detail15any_params_iterD2Ev(ptr noundef nonnull align 8 dereferenceable(81) %10) #9
  call void @llvm.lifetime.end.p0(i64 88, ptr %10) #9
  call void @llvm.lifetime.end.p0(i64 48, ptr %9) #9
  call void @llvm.lifetime.end.p0(i64 104, ptr %8) #9
  call void @llvm.lifetime.end.p0(i64 48, ptr %7) #9
  call void @llvm.lifetime.end.p0(i64 104, ptr %6) #9
  ret ptr %17

27:                                               ; preds = %3
  %28 = landingpad { ptr, i32 }
          cleanup
  %29 = extractvalue { ptr, i32 } %28, 0
  store ptr %29, ptr %13, align 8
  %30 = extractvalue { ptr, i32 } %28, 1
  store i32 %30, ptr %14, align 4
  call void @llvm.lifetime.end.p0(i64 104, ptr %12) #9
  call void @_ZN5boost4urls6detail15any_params_iterD2Ev(ptr noundef nonnull align 8 dereferenceable(81) %10) #9
  call void @llvm.lifetime.end.p0(i64 88, ptr %10) #9
  call void @llvm.lifetime.end.p0(i64 48, ptr %9) #9
  call void @llvm.lifetime.end.p0(i64 104, ptr %8) #9
  call void @llvm.lifetime.end.p0(i64 48, ptr %7) #9
  call void @llvm.lifetime.end.p0(i64 104, ptr %6) #9
  br label %31

31:                                               ; preds = %27
  %32 = load ptr, ptr %13, align 8
  %33 = load i32, ptr %14, align 4
  %34 = insertvalue { ptr, i32 } poison, ptr %32, 0
  %35 = insertvalue { ptr, i32 } %34, i32 %33, 1
  resume { ptr, i32 } %35
}