; Function Attrs: mustprogress uwtable
define noundef nonnull align 8 dereferenceable(216) ptr @_ZN5boost4urls8url_base9set_queryENS_4core17basic_string_viewIcEE(ptr noundef nonnull returned align 8 dereferenceable(216) %0, ptr %1, i64 %2) local_unnamed_addr #10 align 2 personality ptr @__gxx_personality_v0 {
  %4 = alloca %"struct.boost::urls::detail::params_iter_impl", align 8
  %5 = alloca %"class.boost::urls::detail::query_ref", align 8
  %6 = alloca %"struct.boost::urls::detail::params_iter_impl", align 8
  %7 = alloca %"class.boost::urls::detail::query_ref", align 8
  %8 = alloca %"struct.boost::urls::detail::query_iter", align 8
  %9 = alloca %"struct.boost::urls::detail::params_iter_impl", align 8
  call void @llvm.lifetime.start.p0(i64 104, ptr nonnull %4) #30
  call void @llvm.lifetime.start.p0(i64 48, ptr nonnull %5) #30
  %10 = getelementptr inbounds i8, ptr %0, i64 16
  call void @_ZN5boost4urls6detail9query_refC1ERKNS1_8url_implE(ptr noundef nonnull align 8 dereferenceable(41) %5, ptr noundef nonnull align 8 dereferenceable(171) %10) #30
  call void @_ZN5boost4urls6detail16params_iter_implC1ERKNS1_9query_refE(ptr noundef nonnull align 8 dereferenceable(104) %4, ptr noundef nonnull align 8 dereferenceable(41) %5) #30
  call void @llvm.lifetime.start.p0(i64 104, ptr nonnull %6) #30
  call void @llvm.lifetime.start.p0(i64 48, ptr nonnull %7) #30
  call void @_ZN5boost4urls6detail9query_refC1ERKNS1_8url_implE(ptr noundef nonnull align 8 dereferenceable(41) %7, ptr noundef nonnull align 8 dereferenceable(171) %10) #30
  call void @_ZN5boost4urls6detail16params_iter_implC1ERKNS1_9query_refEi(ptr noundef nonnull align 8 dereferenceable(104) %6, ptr noundef nonnull align 8 dereferenceable(41) %7, i32 noundef 0) #30
  call void @llvm.lifetime.start.p0(i64 88, ptr nonnull %8) #30
  call void @_ZN5boost4urls6detail10query_iterC1ENS_4core17basic_string_viewIcEEb(ptr noundef nonnull align 8 dereferenceable(81) %8, ptr %1, i64 %2, i1 noundef zeroext true) #30
  call void @llvm.lifetime.start.p0(i64 104, ptr nonnull %9) #30
  invoke void @_ZN5boost4urls8url_base11edit_paramsERKNS0_6detail16params_iter_implES5_ONS2_15any_params_iterE(ptr dead_on_unwind nonnull writable sret(%"struct.boost::urls::detail::params_iter_impl") align 8 %9, ptr noundef nonnull align 8 dereferenceable(216) %0, ptr noundef nonnull align 8 dereferenceable(104) %4, ptr noundef nonnull align 8 dereferenceable(104) %6, ptr noundef nonnull align 8 dereferenceable(41) %8)
          to label %11 unwind label %12

11:                                               ; preds = %3
  call void @llvm.lifetime.end.p0(i64 104, ptr nonnull %9) #30
  call void @_ZN5boost4urls6detail15any_params_iterD2Ev(ptr noundef nonnull align 8 dereferenceable(81) %8) #30
  call void @llvm.lifetime.end.p0(i64 88, ptr nonnull %8) #30
  call void @llvm.lifetime.end.p0(i64 48, ptr nonnull %7) #30
  call void @llvm.lifetime.end.p0(i64 104, ptr nonnull %6) #30
  call void @llvm.lifetime.end.p0(i64 48, ptr nonnull %5) #30
  call void @llvm.lifetime.end.p0(i64 104, ptr nonnull %4) #30
  ret ptr %0

12:                                               ; preds = %3
  %13 = landingpad { ptr, i32 }
          cleanup
  call void @llvm.lifetime.end.p0(i64 104, ptr nonnull %9) #30
  call void @_ZN5boost4urls6detail15any_params_iterD2Ev(ptr noundef nonnull align 8 dereferenceable(81) %8) #30
  call void @llvm.lifetime.end.p0(i64 88, ptr nonnull %8) #30
  call void @llvm.lifetime.end.p0(i64 48, ptr nonnull %7) #30
  call void @llvm.lifetime.end.p0(i64 104, ptr nonnull %6) #30
  call void @llvm.lifetime.end.p0(i64 48, ptr nonnull %5) #30
  call void @llvm.lifetime.end.p0(i64 104, ptr nonnull %4) #30
  resume { ptr, i32 } %13
}